target datalayout = "e-m:e-p270:32:32-p271:32:32-p272:64:64-i64:64-i128:128-f80:128-n8:16:32:64-S128"
target triple = "x86_64-pc-linux-gnu"

%"class.std::__cxx11::basic_string" = type { %"struct.std::__cxx11::basic_string<char>::_Alloc_hider", i64, %union.anon }
%"struct.std::__cxx11::basic_string<char>::_Alloc_hider" = type { ptr }
%union.anon = type { i64, [8 x i8] }
%"struct.std::_Rb_tree_header" = type { %"struct.std::_Rb_tree_node_base", i64 }
%"struct.std::_Rb_tree_node_base" = type { i32, ptr, ptr, ptr }
%"struct.std::_Rb_tree_key_compare" = type { %"struct.std::less" }
%"struct.std::less" = type { i8 }
%"struct.(anonymous namespace)::statdata_t" = type { i32, i32, i32, i32, i32, i32, i32, i32, double, double, %"class.std::__cxx11::basic_string", %"class.std::map.119", %"class.std::map.124", %"class.std::set" }
%"class.std::map.119" = type { %"class.std::_Rb_tree.120" }
%"class.std::_Rb_tree.120" = type { %"struct.std::_Rb_tree<Yosys::RTLIL::IdString, std::pair<const Yosys::RTLIL::IdString, int>, std::_Select1st<std::pair<const Yosys::RTLIL::IdString, int>>, std::less<Yosys::RTLIL::IdString>>::_Rb_tree_impl" }
%"struct.std::_Rb_tree<Yosys::RTLIL::IdString, std::pair<const Yosys::RTLIL::IdString, int>, std::_Select1st<std::pair<const Yosys::RTLIL::IdString, int>>, std::less<Yosys::RTLIL::IdString>>::_Rb_tree_impl" = type { %"struct.std::_Rb_tree_key_compare", %"struct.std::_Rb_tree_header" }
%"class.std::map.124" = type { %"class.std::_Rb_tree.125" }
%"class.std::_Rb_tree.125" = type { %"struct.std::_Rb_tree<Yosys::RTLIL::IdString, std::pair<const Yosys::RTLIL::IdString, unsigned int>, std::_Select1st<std::pair<const Yosys::RTLIL::IdString, unsigned int>>, Yosys::RTLIL::sort_by_id_str>::_Rb_tree_impl" }
%"struct.std::_Rb_tree<Yosys::RTLIL::IdString, std::pair<const Yosys::RTLIL::IdString, unsigned int>, std::_Select1st<std::pair<const Yosys::RTLIL::IdString, unsigned int>>, Yosys::RTLIL::sort_by_id_str>::_Rb_tree_impl" = type { %"struct.std::_Rb_tree_key_compare.129", %"struct.std::_Rb_tree_header" }
%"struct.std::_Rb_tree_key_compare.129" = type { %"struct.Yosys::RTLIL::sort_by_id_str" }
%"struct.Yosys::RTLIL::sort_by_id_str" = type { i8 }
%"class.std::set" = type { %"class.std::_Rb_tree.130" }
%"class.std::_Rb_tree.130" = type { %"struct.std::_Rb_tree<Yosys::RTLIL::IdString, Yosys::RTLIL::IdString, std::_Identity<Yosys::RTLIL::IdString>, std::less<Yosys::RTLIL::IdString>>::_Rb_tree_impl" }
%"struct.std::_Rb_tree<Yosys::RTLIL::IdString, Yosys::RTLIL::IdString, std::_Identity<Yosys::RTLIL::IdString>, std::less<Yosys::RTLIL::IdString>>::_Rb_tree_impl" = type { %"struct.std::_Rb_tree_key_compare", %"struct.std::_Rb_tree_header" }

; Function Attrs: mustprogress nounwind uwtable
define linkonce_odr void @_ZNSt15__new_allocatorISt13_Rb_tree_nodeISt4pairIKN5Yosys5RTLIL8IdStringEiEEED2Ev(ptr noundef nonnull align 1 dereferenceable(1) %0) unnamed_addr #5 comdat align 2 {
  %2 = alloca ptr, align 8
  store ptr %0, ptr %2, align 8
  ret void
}

; Function Attrs: mustprogress nounwind uwtable
define linkonce_odr void @_ZNSt15__new_allocatorISt13_Rb_tree_nodeISt4pairIKN5Yosys5RTLIL8IdStringEjEEED2Ev(ptr noundef nonnull align 1 dereferenceable(1) %0) unnamed_addr #5 comdat align 2 {
  %2 = alloca ptr, align 8
  store ptr %0, ptr %2, align 8
  ret void
}

; Function Attrs: mustprogress nounwind uwtable
define linkonce_odr void @_ZNSt15__new_allocatorISt13_Rb_tree_nodeIN5Yosys5RTLIL8IdStringEEED2Ev(ptr noundef nonnull align 1 dereferenceable(1) %0) unnamed_addr #5 comdat align 2 {
  %2 = alloca ptr, align 8
  store ptr %0, ptr %2, align 8
  ret void
}

; Function Attrs: mustprogress nounwind uwtable
define linkonce_odr void @_ZNSaISt13_Rb_tree_nodeISt4pairIKN5Yosys5RTLIL8IdStringEiEEED2Ev(ptr noundef nonnull align 1 dereferenceable(1) %0) unnamed_addr #5 comdat align 2 {
  %2 = alloca ptr, align 8
  store ptr %0, ptr %2, align 8
  %3 = load ptr, ptr %2, align 8
  call void @_ZNSt15__new_allocatorISt13_Rb_tree_nodeISt4pairIKN5Yosys5RTLIL8IdStringEiEEED2Ev(ptr noundef nonnull align 1 dereferenceable(1) %3) #3
  ret void
}

; Function Attrs: mustprogress nounwind uwtable
define linkonce_odr noundef ptr @_ZNKSt8_Rb_treeIN5Yosys5RTLIL8IdStringESt4pairIKS2_iESt10_Select1stIS5_ESt4lessIS2_ESaIS5_EE9_M_mbeginEv(ptr noundef nonnull align 8 dereferenceable(48) %0) #5 comdat align 2 {
  %2 = alloca ptr, align 8
  store ptr %0, ptr %2, align 8
  %3 = load ptr, ptr %2, align 8
  %4 = getelementptr inbounds %"class.std::_Rb_tree.120", ptr %3, i32 0, i32 0
  %5 = getelementptr inbounds i8, ptr %4, i64 8
  %6 = getelementptr inbounds %"struct.std::_Rb_tree_header", ptr %5, i32 0, i32 0
  %7 = getelementptr inbounds %"struct.std::_Rb_tree_node_base", ptr %6, i32 0, i32 1
  %8 = load ptr, ptr %7, align 8
  ret ptr %8
}

; Function Attrs: mustprogress nounwind uwtable
define linkonce_odr void @_ZNSaISt13_Rb_tree_nodeISt4pairIKN5Yosys5RTLIL8IdStringEjEEED2Ev(ptr noundef nonnull align 1 dereferenceable(1) %0) unnamed_addr #5 comdat align 2 {
  %2 = alloca ptr, align 8
  store ptr %0, ptr %2, align 8
  %3 = load ptr, ptr %2, align 8
  call void @_ZNSt15__new_allocatorISt13_Rb_tree_nodeISt4pairIKN5Yosys5RTLIL8IdStringEjEEED2Ev(ptr noundef nonnull align 1 dereferenceable(1) %3) #3
  ret void
}

; Function Attrs: mustprogress nounwind uwtable
define linkonce_odr noundef ptr @_ZNKSt8_Rb_treeIN5Yosys5RTLIL8IdStringESt4pairIKS2_jESt10_Select1stIS5_ENS1_14sort_by_id_strESaIS5_EE9_M_mbeginEv(ptr noundef nonnull align 8 dereferenceable(48) %0) #5 comdat align 2 {
  %2 = alloca ptr, align 8
  store ptr %0, ptr %2, align 8
  %3 = load ptr, ptr %2, align 8
  %4 = getelementptr inbounds %"class.std::_Rb_tree.125", ptr %3, i32 0, i32 0
  %5 = getelementptr inbounds i8, ptr %4, i64 8
  %6 = getelementptr inbounds %"struct.std::_Rb_tree_header", ptr %5, i32 0, i32 0
  %7 = getelementptr inbounds %"struct.std::_Rb_tree_node_base", ptr %6, i32 0, i32 1
  %8 = load ptr, ptr %7, align 8
  ret ptr %8
}

; Function Attrs: mustprogress nounwind uwtable
define linkonce_odr void @_ZNSaISt13_Rb_tree_nodeIN5Yosys5RTLIL8IdStringEEED2Ev(ptr noundef nonnull align 1 dereferenceable(1) %0) unnamed_addr #5 comdat align 2 {
  %2 = alloca ptr, align 8
  store ptr %0, ptr %2, align 8
  %3 = load ptr, ptr %2, align 8
  call void @_ZNSt15__new_allocatorISt13_Rb_tree_nodeIN5Yosys5RTLIL8IdStringEEED2Ev(ptr noundef nonnull align 1 dereferenceable(1) %3) #3
  ret void
}

; Function Attrs: mustprogress nounwind uwtable
define linkonce_odr noundef ptr @_ZNKSt8_Rb_treeIN5Yosys5RTLIL8IdStringES2_St9_IdentityIS2_ESt4lessIS2_ESaIS2_EE9_M_mbeginEv(ptr noundef nonnull align 8 dereferenceable(48) %0) #5 comdat align 2 {
  %2 = alloca ptr, align 8
  store ptr %0, ptr %2, align 8
  %3 = load ptr, ptr %2, align 8
  %4 = getelementptr inbounds %"class.std::_Rb_tree.130", ptr %3, i32 0, i32 0
  %5 = getelementptr inbounds i8, ptr %4, i64 8
  %6 = getelementptr inbounds %"struct.std::_Rb_tree_header", ptr %5, i32 0, i32 0
  %7 = getelementptr inbounds %"struct.std::_Rb_tree_node_base", ptr %6, i32 0, i32 1
  %8 = load ptr, ptr %7, align 8
  ret ptr %8
}

; Function Attrs: mustprogress nounwind uwtable
define linkonce_odr void @_ZNSt8_Rb_treeIN5Yosys5RTLIL8IdStringESt4pairIKS2_iESt10_Select1stIS5_ESt4lessIS2_ESaIS5_EE13_Rb_tree_implIS9_Lb1EED2Ev(ptr noundef nonnull align 8 dereferenceable(48) %0) unnamed_addr #5 comdat align 2 {
  %2 = alloca ptr, align 8
  store ptr %0, ptr %2, align 8
  %3 = load ptr, ptr %2, align 8
  call void @_ZNSaISt13_Rb_tree_nodeISt4pairIKN5Yosys5RTLIL8IdStringEiEEED2Ev(ptr noundef nonnull align 1 dereferenceable(1) %3) #3
  ret void
}

; Function Attrs: mustprogress nounwind uwtable
define linkonce_odr noundef ptr @_ZNSt8_Rb_treeIN5Yosys5RTLIL8IdStringESt4pairIKS2_iESt10_Select1stIS5_ESt4lessIS2_ESaIS5_EE8_M_beginEv(ptr noundef nonnull align 8 dereferenceable(48) %0) #5 comdat align 2 {
  %2 = alloca ptr, align 8
  store ptr %0, ptr %2, align 8
  %3 = load ptr, ptr %2, align 8
  %4 = call noundef ptr @_ZNKSt8_Rb_treeIN5Yosys5RTLIL8IdStringESt4pairIKS2_iESt10_Select1stIS5_ESt4lessIS2_ESaIS5_EE9_M_mbeginEv(ptr noundef nonnull align 8 dereferenceable(48) %3) #3
  ret ptr %4
}

; Function Attrs: mustprogress nounwind uwtable
define linkonce_odr void @_ZNSt8_Rb_treeIN5Yosys5RTLIL8IdStringESt4pairIKS2_jESt10_Select1stIS5_ENS1_14sort_by_id_strESaIS5_EE13_Rb_tree_implIS8_Lb1EED2Ev(ptr noundef nonnull align 8 dereferenceable(48) %0) unnamed_addr #5 comdat align 2 {
  %2 = alloca ptr, align 8
  store ptr %0, ptr %2, align 8
  %3 = load ptr, ptr %2, align 8
  call void @_ZNSaISt13_Rb_tree_nodeISt4pairIKN5Yosys5RTLIL8IdStringEjEEED2Ev(ptr noundef nonnull align 1 dereferenceable(1) %3) #3
  ret void
}

; Function Attrs: mustprogress nounwind uwtable
define linkonce_odr noundef ptr @_ZNSt8_Rb_treeIN5Yosys5RTLIL8IdStringESt4pairIKS2_jESt10_Select1stIS5_ENS1_14sort_by_id_strESaIS5_EE8_M_beginEv(ptr noundef nonnull align 8 dereferenceable(48) %0) #5 comdat align 2 {
  %2 = alloca ptr, align 8
  store ptr %0, ptr %2, align 8
  %3 = load ptr, ptr %2, align 8
  %4 = call noundef ptr @_ZNKSt8_Rb_treeIN5Yosys5RTLIL8IdStringESt4pairIKS2_jESt10_Select1stIS5_ENS1_14sort_by_id_strESaIS5_EE9_M_mbeginEv(ptr noundef nonnull align 8 dereferenceable(48) %3) #3
  ret ptr %4
}

; Function Attrs: mustprogress nounwind uwtable
define linkonce_odr void @_ZNSt8_Rb_treeIN5Yosys5RTLIL8IdStringES2_St9_IdentityIS2_ESt4lessIS2_ESaIS2_EE13_Rb_tree_implIS6_Lb1EED2Ev(ptr noundef nonnull align 8 dereferenceable(48) %0) unnamed_addr #5 comdat align 2 {
  %2 = alloca ptr, align 8
  store ptr %0, ptr %2, align 8
  %3 = load ptr, ptr %2, align 8
  call void @_ZNSaISt13_Rb_tree_nodeIN5Yosys5RTLIL8IdStringEEED2Ev(ptr noundef nonnull align 1 dereferenceable(1) %3) #3
  ret void
}

; Function Attrs: mustprogress nounwind uwtable
define linkonce_odr noundef ptr @_ZNSt8_Rb_treeIN5Yosys5RTLIL8IdStringES2_St9_IdentityIS2_ESt4lessIS2_ESaIS2_EE8_M_beginEv(ptr noundef nonnull align 8 dereferenceable(48) %0) #5 comdat align 2 {
  %2 = alloca ptr, align 8
  store ptr %0, ptr %2, align 8
  %3 = load ptr, ptr %2, align 8
  %4 = call noundef ptr @_ZNKSt8_Rb_treeIN5Yosys5RTLIL8IdStringES2_St9_IdentityIS2_ESt4lessIS2_ESaIS2_EE9_M_mbeginEv(ptr noundef nonnull align 8 dereferenceable(48) %3) #3
  ret ptr %4
}

; Function Attrs: mustprogress nounwind uwtable
define linkonce_odr void @_ZNSt8_Rb_treeIN5Yosys5RTLIL8IdStringESt4pairIKS2_iESt10_Select1stIS5_ESt4lessIS2_ESaIS5_EED2Ev(ptr noundef nonnull align 8 dereferenceable(48) %0) unnamed_addr #5 comdat align 2 personality ptr @__gxx_personality_v0 {
  %2 = alloca ptr, align 8
  store ptr %0, ptr %2, align 8
  %3 = load ptr, ptr %2, align 8
  %4 = call noundef ptr @_ZNSt8_Rb_treeIN5Yosys5RTLIL8IdStringESt4pairIKS2_iESt10_Select1stIS5_ESt4lessIS2_ESaIS5_EE8_M_beginEv(ptr noundef nonnull align 8 dereferenceable(48) %3) #3
  invoke void @_ZNSt8_Rb_treeIN5Yosys5RTLIL8IdStringESt4pairIKS2_iESt10_Select1stIS5_ESt4lessIS2_ESaIS5_EE8_M_eraseEPSt13_Rb_tree_nodeIS5_E(ptr noundef nonnull align 8 dereferenceable(48) %3, ptr noundef %4)
          to label %5 unwind label %7

5:                                                ; preds = %1
  %6 = getelementptr inbounds %"class.std::_Rb_tree.120", ptr %3, i32 0, i32 0
  call void @_ZNSt8_Rb_treeIN5Yosys5RTLIL8IdStringESt4pairIKS2_iESt10_Select1stIS5_ESt4lessIS2_ESaIS5_EE13_Rb_tree_implIS9_Lb1EED2Ev(ptr noundef nonnull align 8 dereferenceable(48) %6) #3
  ret void

7:                                                ; preds = %1
  %8 = landingpad { ptr, i32 }
          catch ptr null
  %9 = extractvalue { ptr, i32 } %8, 0
  call void @__clang_call_terminate(ptr %9) #20
  unreachable
}

; Function Attrs: mustprogress nounwind uwtable
define linkonce_odr void @_ZNSt8_Rb_treeIN5Yosys5RTLIL8IdStringESt4pairIKS2_jESt10_Select1stIS5_ENS1_14sort_by_id_strESaIS5_EED2Ev(ptr noundef nonnull align 8 dereferenceable(48) %0) unnamed_addr #5 comdat align 2 personality ptr @__gxx_personality_v0 {
  %2 = alloca ptr, align 8
  store ptr %0, ptr %2, align 8
  %3 = load ptr, ptr %2, align 8
  %4 = call noundef ptr @_ZNSt8_Rb_treeIN5Yosys5RTLIL8IdStringESt4pairIKS2_jESt10_Select1stIS5_ENS1_14sort_by_id_strESaIS5_EE8_M_beginEv(ptr noundef nonnull align 8 dereferenceable(48) %3) #3
  invoke void @_ZNSt8_Rb_treeIN5Yosys5RTLIL8IdStringESt4pairIKS2_jESt10_Select1stIS5_ENS1_14sort_by_id_strESaIS5_EE8_M_eraseEPSt13_Rb_tree_nodeIS5_E(ptr noundef nonnull align 8 dereferenceable(48) %3, ptr noundef %4)
          to label %5 unwind label %7

5:                                                ; preds = %1
  %6 = getelementptr inbounds %"class.std::_Rb_tree.125", ptr %3, i32 0, i32 0
  call void @_ZNSt8_Rb_treeIN5Yosys5RTLIL8IdStringESt4pairIKS2_jESt10_Select1stIS5_ENS1_14sort_by_id_strESaIS5_EE13_Rb_tree_implIS8_Lb1EED2Ev(ptr noundef nonnull align 8 dereferenceable(48) %6) #3
  ret void

7:                                                ; preds = %1
  %8 = landingpad { ptr, i32 }
          catch ptr null
  %9 = extractvalue { ptr, i32 } %8, 0
  call void @__clang_call_terminate(ptr %9) #20
  unreachable
}

; Function Attrs: mustprogress nounwind uwtable
define linkonce_odr void @_ZNSt8_Rb_treeIN5Yosys5RTLIL8IdStringES2_St9_IdentityIS2_ESt4lessIS2_ESaIS2_EED2Ev(ptr noundef nonnull align 8 dereferenceable(48) %0) unnamed_addr #5 comdat align 2 personality ptr @__gxx_personality_v0 {
  %2 = alloca ptr, align 8
  store ptr %0, ptr %2, align 8
  %3 = load ptr, ptr %2, align 8
  %4 = call noundef ptr @_ZNSt8_Rb_treeIN5Yosys5RTLIL8IdStringES2_St9_IdentityIS2_ESt4lessIS2_ESaIS2_EE8_M_beginEv(ptr noundef nonnull align 8 dereferenceable(48) %3) #3
  invoke void @_ZNSt8_Rb_treeIN5Yosys5RTLIL8IdStringES2_St9_IdentityIS2_ESt4lessIS2_ESaIS2_EE8_M_eraseEPSt13_Rb_tree_nodeIS2_E(ptr noundef nonnull align 8 dereferenceable(48) %3, ptr noundef %4)
          to label %5 unwind label %7

5:                                                ; preds = %1
  %6 = getelementptr inbounds %"class.std::_Rb_tree.130", ptr %3, i32 0, i32 0
  call void @_ZNSt8_Rb_treeIN5Yosys5RTLIL8IdStringES2_St9_IdentityIS2_ESt4lessIS2_ESaIS2_EE13_Rb_tree_implIS6_Lb1EED2Ev(ptr noundef nonnull align 8 dereferenceable(48) %6) #3
  ret void

7:                                                ; preds = %1
  %8 = landingpad { ptr, i32 }
          catch ptr null
  %9 = extractvalue { ptr, i32 } %8, 0
  call void @__clang_call_terminate(ptr %9) #20
  unreachable
}

; Function Attrs: mustprogress nounwind uwtable
define linkonce_odr void @_ZNSt3mapIN5Yosys5RTLIL8IdStringEiSt4lessIS2_ESaISt4pairIKS2_iEEED2Ev(ptr noundef nonnull align 8 dereferenceable(48) %0) unnamed_addr #5 comdat align 2 {
  %2 = alloca ptr, align 8
  store ptr %0, ptr %2, align 8
  %3 = load ptr, ptr %2, align 8
  %4 = getelementptr inbounds %"class.std::map.119", ptr %3, i32 0, i32 0
  call void @_ZNSt8_Rb_treeIN5Yosys5RTLIL8IdStringESt4pairIKS2_iESt10_Select1stIS5_ESt4lessIS2_ESaIS5_EED2Ev(ptr noundef nonnull align 8 dereferenceable(48) %4) #3
  ret void
}

; Function Attrs: mustprogress nounwind uwtable
define linkonce_odr void @_ZNSt3mapIN5Yosys5RTLIL8IdStringEjNS1_14sort_by_id_strESaISt4pairIKS2_jEEED2Ev(ptr noundef nonnull align 8 dereferenceable(48) %0) unnamed_addr #5 comdat align 2 {
  %2 = alloca ptr, align 8
  store ptr %0, ptr %2, align 8
  %3 = load ptr, ptr %2, align 8
  %4 = getelementptr inbounds %"class.std::map.124", ptr %3, i32 0, i32 0
  call void @_ZNSt8_Rb_treeIN5Yosys5RTLIL8IdStringESt4pairIKS2_jESt10_Select1stIS5_ENS1_14sort_by_id_strESaIS5_EED2Ev(ptr noundef nonnull align 8 dereferenceable(48) %4) #3
  ret void
}

; Function Attrs: mustprogress nounwind uwtable
define linkonce_odr void @_ZNSt3setIN5Yosys5RTLIL8IdStringESt4lessIS2_ESaIS2_EED2Ev(ptr noundef nonnull align 8 dereferenceable(48) %0) unnamed_addr #5 comdat align 2 {
  %2 = alloca ptr, align 8
  store ptr %0, ptr %2, align 8
  %3 = load ptr, ptr %2, align 8
  %4 = getelementptr inbounds %"class.std::set", ptr %3, i32 0, i32 0
  call void @_ZNSt8_Rb_treeIN5Yosys5RTLIL8IdStringES2_St9_IdentityIS2_ESt4lessIS2_ESaIS2_EED2Ev(ptr noundef nonnull align 8 dereferenceable(48) %4) #3
  ret void
}

; Function Attrs: mustprogress nounwind uwtable
define internal void @_ZN12_GLOBAL__N_110statdata_tD2Ev(ptr noundef nonnull align 8 dereferenceable(224) %0) unnamed_addr #5 align 2 {
  %2 = alloca ptr, align 8
  store ptr %0, ptr %2, align 8
  %3 = load ptr, ptr %2, align 8
  %4 = getelementptr inbounds %"struct.(anonymous namespace)::statdata_t", ptr %3, i32 0, i32 13
  call void @_ZNSt3setIN5Yosys5RTLIL8IdStringESt4lessIS2_ESaIS2_EED2Ev(ptr noundef nonnull align 8 dereferenceable(48) %4) #3
  %5 = getelementptr inbounds %"struct.(anonymous namespace)::statdata_t", ptr %3, i32 0, i32 12
  call void @_ZNSt3mapIN5Yosys5RTLIL8IdStringEjNS1_14sort_by_id_strESaISt4pairIKS2_jEEED2Ev(ptr noundef nonnull align 8 dereferenceable(48) %5) #3
  %6 = getelementptr inbounds %"struct.(anonymous namespace)::statdata_t", ptr %3, i32 0, i32 11
  call void @_ZNSt3mapIN5Yosys5RTLIL8IdStringEiSt4lessIS2_ESaISt4pairIKS2_iEEED2Ev(ptr noundef nonnull align 8 dereferenceable(48) %6) #3
  %7 = getelementptr inbounds %"struct.(anonymous namespace)::statdata_t", ptr %3, i32 0, i32 10
  call void @_ZNSt7__cxx1112basic_stringIcSt11char_traitsIcESaIcEED1Ev(ptr noundef nonnull align 8 dereferenceable(32) %7) #3
  ret void
}