; Function Attrs: mustprogress nounwind uwtable
define internal fastcc void @_ZN12_GLOBAL__N_110statdata_tD2Ev(ptr noundef nonnull align 8 dereferenceable(224) %0) unnamed_addr #3 align 2 personality ptr @__gxx_personality_v0 {
  %2 = getelementptr inbounds i8, ptr %0, i64 176
  %3 = getelementptr inbounds i8, ptr %0, i64 192
  %4 = load ptr, ptr %3, align 8
  invoke void @_ZNSt8_Rb_treeIN5Yosys5RTLIL8IdStringES2_St9_IdentityIS2_ESt4lessIS2_ESaIS2_EE8_M_eraseEPSt13_Rb_tree_nodeIS2_E(ptr noundef nonnull align 8 dereferenceable(48) %2, ptr noundef %4)
          to label %_ZNSt3setIN5Yosys5RTLIL8IdStringESt4lessIS2_ESaIS2_EED2Ev.exit unwind label %5

5:                                                ; preds = %1
  %6 = landingpad { ptr, i32 }
          catch ptr null
  %7 = extractvalue { ptr, i32 } %6, 0
  tail call void @__clang_call_terminate(ptr %7) #28
  unreachable

_ZNSt3setIN5Yosys5RTLIL8IdStringESt4lessIS2_ESaIS2_EED2Ev.exit: ; preds = %1
  %8 = getelementptr inbounds i8, ptr %0, i64 128
  %9 = getelementptr inbounds i8, ptr %0, i64 144
  %10 = load ptr, ptr %9, align 8
  invoke void @_ZNSt8_Rb_treeIN5Yosys5RTLIL8IdStringESt4pairIKS2_jESt10_Select1stIS5_ENS1_14sort_by_id_strESaIS5_EE8_M_eraseEPSt13_Rb_tree_nodeIS5_E(ptr noundef nonnull align 8 dereferenceable(48) %8, ptr noundef %10)
          to label %_ZNSt3mapIN5Yosys5RTLIL8IdStringEjNS1_14sort_by_id_strESaISt4pairIKS2_jEEED2Ev.exit unwind label %11

11:                                               ; preds = %_ZNSt3setIN5Yosys5RTLIL8IdStringESt4lessIS2_ESaIS2_EED2Ev.exit
  %12 = landingpad { ptr, i32 }
          catch ptr null
  %13 = extractvalue { ptr, i32 } %12, 0
  tail call void @__clang_call_terminate(ptr %13) #28
  unreachable

_ZNSt3mapIN5Yosys5RTLIL8IdStringEjNS1_14sort_by_id_strESaISt4pairIKS2_jEEED2Ev.exit: ; preds = %_ZNSt3setIN5Yosys5RTLIL8IdStringESt4lessIS2_ESaIS2_EED2Ev.exit
  %14 = getelementptr inbounds i8, ptr %0, i64 80
  %15 = getelementptr inbounds i8, ptr %0, i64 96
  %16 = load ptr, ptr %15, align 8
  invoke void @_ZNSt8_Rb_treeIN5Yosys5RTLIL8IdStringESt4pairIKS2_iESt10_Select1stIS5_ESt4lessIS2_ESaIS5_EE8_M_eraseEPSt13_Rb_tree_nodeIS5_E(ptr noundef nonnull align 8 dereferenceable(48) %14, ptr noundef %16)
          to label %_ZNSt3mapIN5Yosys5RTLIL8IdStringEiSt4lessIS2_ESaISt4pairIKS2_iEEED2Ev.exit unwind label %17

17:                                               ; preds = %_ZNSt3mapIN5Yosys5RTLIL8IdStringEjNS1_14sort_by_id_strESaISt4pairIKS2_jEEED2Ev.exit
  %18 = landingpad { ptr, i32 }
          catch ptr null
  %19 = extractvalue { ptr, i32 } %18, 0
  tail call void @__clang_call_terminate(ptr %19) #28
  unreachable

_ZNSt3mapIN5Yosys5RTLIL8IdStringEiSt4lessIS2_ESaISt4pairIKS2_iEEED2Ev.exit: ; preds = %_ZNSt3mapIN5Yosys5RTLIL8IdStringEjNS1_14sort_by_id_strESaISt4pairIKS2_jEEED2Ev.exit
  %20 = getelementptr inbounds i8, ptr %0, i64 48
  tail call void @_ZNSt7__cxx1112basic_stringIcSt11char_traitsIcESaIcEED1Ev(ptr noundef nonnull align 8 dereferenceable(32) %20) #22
  ret void
}